target datalayout = "e-m:e-p270:32:32-p271:32:32-p272:64:64-i64:64-i128:128-f80:128-n8:16:32:64-S128"
target triple = "x86_64-pc-linux-gnu"

%"class.vcg::Point3" = type { [3 x float] }
%"class.vcg::TrackMode" = type { ptr }
%"class.std::vector" = type { %"struct.std::_Vector_base" }
%"struct.std::_Vector_base" = type { %"struct.std::_Vector_base<vcg::Point3<float>, std::allocator<vcg::Point3<float>>>::_Vector_impl" }
%"struct.std::_Vector_base<vcg::Point3<float>, std::allocator<vcg::Point3<float>>>::_Vector_impl" = type { %"struct.std::_Vector_base<vcg::Point3<float>, std::allocator<vcg::Point3<float>>>::_Vector_impl_data" }
%"struct.std::_Vector_base<vcg::Point3<float>, std::allocator<vcg::Point3<float>>>::_Vector_impl_data" = type { ptr, ptr, ptr }
%"class.vcg::PathMode" = type { %"class.vcg::TrackMode", %"class.std::vector", i8, float, float, float, float, %"class.vcg::Point3", float, %"class.vcg::Point3" }

; Function Attrs: mustprogress nounwind uwtable
define linkonce_odr void @_ZN3vcg6Point3IfEC2Ev(ptr noundef nonnull align 4 dereferenceable(12) %0) unnamed_addr #0 comdat align 2 {
  %2 = alloca ptr, align 8
  store ptr %0, ptr %2, align 8
  ret void
}

; Function Attrs: mustprogress uwtable
define void @_ZN3vcg8PathMode4DrawEPNS_9TrackballE(ptr noundef nonnull align 8 dereferenceable(80) %0, ptr noundef %1) unnamed_addr #2 align 2 {
  %3 = alloca ptr, align 8
  %4 = alloca ptr, align 8
  %5 = alloca %"class.vcg::Point3", align 4
  %6 = alloca %"class.vcg::Point3", align 4
  %7 = alloca %"class.vcg::Point3", align 4
  %8 = alloca %"class.vcg::Point3", align 4
  %9 = alloca %"class.vcg::Point3", align 4
  %10 = alloca %"class.vcg::Point3", align 4
  %11 = alloca %"class.vcg::Point3", align 4
  %12 = alloca { <2 x float>, float }, align 4
  %13 = alloca { <2 x float>, float }, align 4
  %14 = alloca { <2 x float>, float }, align 4
  %15 = alloca { <2 x float>, float }, align 4
  store ptr %0, ptr %3, align 8
  store ptr %1, ptr %4, align 8
  %16 = load ptr, ptr %3, align 8
  %17 = load ptr, ptr %4, align 8
  call void @_ZN3vcg10trackutils14DrawSphereIconEPNS_9TrackballEbb(ptr noundef %17, i1 noundef zeroext true, i1 noundef zeroext false)
  call void @_ZN3vcg6Point3IfEC2Ev(ptr noundef nonnull align 4 dereferenceable(12) %5)
  call void @_ZN3vcg6Point3IfEC2Ev(ptr noundef nonnull align 4 dereferenceable(12) %6)
  call void @_ZN3vcg6Point3IfEC2Ev(ptr noundef nonnull align 4 dereferenceable(12) %7)
  %18 = getelementptr inbounds %"class.vcg::PathMode", ptr %16, i32 0, i32 3
  %19 = load float, ptr %18, align 4
  call void @_ZN3vcg8PathMode9GetPointsEfRNS_6Point3IfEES3_S3_(ptr noundef nonnull align 8 dereferenceable(80) %16, float noundef %19, ptr noundef nonnull align 4 dereferenceable(12) %5, ptr noundef nonnull align 4 dereferenceable(12) %6, ptr noundef nonnull align 4 dereferenceable(12) %7)
  %20 = load ptr, ptr %4, align 8
  %21 = getelementptr inbounds %"class.vcg::PathMode", ptr %16, i32 0, i32 1
  call void @llvm.memcpy.p0.p0.i64(ptr align 4 %8, ptr align 4 %5, i64 12, i1 false)
  call void @llvm.memcpy.p0.p0.i64(ptr align 4 %9, ptr align 4 %6, i64 12, i1 false)
  call void @llvm.memcpy.p0.p0.i64(ptr align 4 %10, ptr align 4 %7, i64 12, i1 false)
  %22 = getelementptr inbounds %"class.vcg::PathMode", ptr %16, i32 0, i32 7
  call void @llvm.memcpy.p0.p0.i64(ptr align 4 %11, ptr align 4 %22, i64 12, i1 false)
  %23 = getelementptr inbounds %"class.vcg::PathMode", ptr %16, i32 0, i32 2
  %24 = load i8, ptr %23, align 8
  %25 = trunc i8 %24 to i1
  call void @llvm.memcpy.p0.p0.i64(ptr align 4 %12, ptr align 4 %8, i64 12, i1 false)
  %26 = getelementptr inbounds { <2 x float>, float }, ptr %12, i32 0, i32 0
  %27 = load <2 x float>, ptr %26, align 4
  %28 = getelementptr inbounds { <2 x float>, float }, ptr %12, i32 0, i32 1
  %29 = load float, ptr %28, align 4
  call void @llvm.memcpy.p0.p0.i64(ptr align 4 %13, ptr align 4 %9, i64 12, i1 false)
  %30 = getelementptr inbounds { <2 x float>, float }, ptr %13, i32 0, i32 0
  %31 = load <2 x float>, ptr %30, align 4
  %32 = getelementptr inbounds { <2 x float>, float }, ptr %13, i32 0, i32 1
  %33 = load float, ptr %32, align 4
  call void @llvm.memcpy.p0.p0.i64(ptr align 4 %14, ptr align 4 %10, i64 12, i1 false)
  %34 = getelementptr inbounds { <2 x float>, float }, ptr %14, i32 0, i32 0
  %35 = load <2 x float>, ptr %34, align 4
  %36 = getelementptr inbounds { <2 x float>, float }, ptr %14, i32 0, i32 1
  %37 = load float, ptr %36, align 4
  call void @llvm.memcpy.p0.p0.i64(ptr align 4 %15, ptr align 4 %11, i64 12, i1 false)
  %38 = getelementptr inbounds { <2 x float>, float }, ptr %15, i32 0, i32 0
  %39 = load <2 x float>, ptr %38, align 4
  %40 = getelementptr inbounds { <2 x float>, float }, ptr %15, i32 0, i32 1
  %41 = load float, ptr %40, align 4
  call void @_ZN3vcg10trackutils16DrawUglyPathModeEPNS_9TrackballERKSt6vectorINS_6Point3IfEESaIS5_EES5_S5_S5_S5_b(ptr noundef %20, ptr noundef nonnull align 8 dereferenceable(24) %21, <2 x float> %27, float %29, <2 x float> %31, float %33, <2 x float> %35, float %37, <2 x float> %39, float %41, i1 noundef zeroext %25)
  ret void
}