; Function Attrs: mustprogress uwtable
define void @_ZN3vcg8PathMode4DrawEPNS_9TrackballE(ptr nocapture noundef nonnull readonly align 8 dereferenceable(80) %0, ptr noundef %1) unnamed_addr #3 align 2 {
  %3 = alloca %"class.vcg::Point3", align 8
  %4 = alloca %"class.vcg::Point3", align 8
  %5 = alloca %"class.vcg::Point3", align 8
  tail call void @_ZN3vcg10trackutils14DrawSphereIconEPNS_9TrackballEbb(ptr noundef %1, i1 noundef zeroext true, i1 noundef zeroext false)
  %6 = getelementptr inbounds i8, ptr %0, i64 36
  %7 = load float, ptr %6, align 4
  call void @_ZN3vcg8PathMode9GetPointsEfRNS_6Point3IfEES3_S3_(ptr noundef nonnull align 8 dereferenceable(80) %0, float noundef %7, ptr noundef nonnull align 4 dereferenceable(12) %3, ptr noundef nonnull align 4 dereferenceable(12) %4, ptr noundef nonnull align 4 dereferenceable(12) %5)
  %8 = getelementptr inbounds i8, ptr %0, i64 8
  %.sroa.013.0.copyload = load <2 x float>, ptr %3, align 8
  %.sroa.214.0..sroa_idx = getelementptr inbounds i8, ptr %3, i64 8
  %.sroa.214.0.copyload = load float, ptr %.sroa.214.0..sroa_idx, align 8
  %.sroa.011.0.copyload = load <2 x float>, ptr %4, align 8
  %.sroa.212.0..sroa_idx = getelementptr inbounds i8, ptr %4, i64 8
  %.sroa.212.0.copyload = load float, ptr %.sroa.212.0..sroa_idx, align 8
  %.sroa.09.0.copyload = load <2 x float>, ptr %5, align 8
  %.sroa.210.0..sroa_idx = getelementptr inbounds i8, ptr %5, i64 8
  %.sroa.210.0.copyload = load float, ptr %.sroa.210.0..sroa_idx, align 8
  %9 = getelementptr inbounds i8, ptr %0, i64 52
  %.sroa.07.0.copyload = load <2 x float>, ptr %9, align 4
  %.sroa.28.0..sroa_idx = getelementptr inbounds i8, ptr %0, i64 60
  %.sroa.28.0.copyload = load float, ptr %.sroa.28.0..sroa_idx, align 4
  %10 = getelementptr inbounds i8, ptr %0, i64 32
  %11 = load i8, ptr %10, align 8
  %12 = and i8 %11, 1
  %13 = icmp ne i8 %12, 0
  tail call void @_ZN3vcg10trackutils16DrawUglyPathModeEPNS_9TrackballERKSt6vectorINS_6Point3IfEESaIS5_EES5_S5_S5_S5_b(ptr noundef %1, ptr noundef nonnull align 8 dereferenceable(24) %8, <2 x float> %.sroa.013.0.copyload, float %.sroa.214.0.copyload, <2 x float> %.sroa.011.0.copyload, float %.sroa.212.0.copyload, <2 x float> %.sroa.09.0.copyload, float %.sroa.210.0.copyload, <2 x float> %.sroa.07.0.copyload, float %.sroa.28.0.copyload, i1 noundef zeroext %13)
  ret void
}